target datalayout = "e-m:e-p270:32:32-p271:32:32-p272:64:64-i64:64-i128:128-f80:128-n8:16:32:64-S128"
target triple = "x86_64-pc-linux-gnu"

%"class.cv::Mat" = type { i32, i32, i32, i32, ptr, ptr, ptr, ptr, ptr, ptr, %"struct.cv::MatSize", %"struct.cv::MatStep" }
%"struct.cv::MatSize" = type { ptr }
%"struct.cv::MatStep" = type { ptr, [2 x i64] }
%"class.cv::text::OCRBeamSearchClassifierCNN" = type { %"class.cv::text::OCRBeamSearchDecoder::ClassifierCallback", i32, i32, i32, i32, %"class.cv::Mat", %"class.cv::Mat", %"class.cv::Mat", %"class.cv::Mat", %"class.cv::Mat", %"class.cv::Mat", i32, i32, i32, i32, double }
%"class.cv::text::OCRBeamSearchDecoder::ClassifierCallback" = type { ptr }

; Function Attrs: inlinehint mustprogress nounwind uwtable
define linkonce_odr hidden noundef nonnull align 8 dereferenceable(8) ptr @_ZN2cv3Mat2atIdEERT_ii(ptr noundef nonnull align 8 dereferenceable(96) %0, i32 noundef %1, i32 noundef %2) #5 comdat align 2 {
  %4 = alloca ptr, align 8
  %5 = alloca i32, align 4
  %6 = alloca i32, align 4
  store ptr %0, ptr %4, align 8, !tbaa !8
  store i32 %1, ptr %5, align 4, !tbaa !18
  store i32 %2, ptr %6, align 4, !tbaa !18
  %7 = load ptr, ptr %4, align 8
  %8 = getelementptr inbounds nuw %"class.cv::Mat", ptr %7, i32 0, i32 4
  %9 = load ptr, ptr %8, align 8, !tbaa !176
  %10 = getelementptr inbounds nuw %"class.cv::Mat", ptr %7, i32 0, i32 11
  %11 = getelementptr inbounds nuw %"struct.cv::MatStep", ptr %10, i32 0, i32 0
  %12 = load ptr, ptr %11, align 8, !tbaa !184
  %13 = getelementptr inbounds i64, ptr %12, i64 0
  %14 = load i64, ptr %13, align 8, !tbaa !52
  %15 = load i32, ptr %5, align 4, !tbaa !18
  %16 = sext i32 %15 to i64
  %17 = mul i64 %14, %16
  %18 = getelementptr inbounds nuw i8, ptr %9, i64 %17
  %19 = load i32, ptr %6, align 4, !tbaa !18
  %20 = sext i32 %19 to i64
  %21 = getelementptr inbounds double, ptr %18, i64 %20
  ret ptr %21
}

; Function Attrs: inlinehint mustprogress nounwind uwtable
define linkonce_odr hidden noundef nonnull align 4 dereferenceable(4) ptr @_ZN2cv3Mat2atIfEERT_ii(ptr noundef nonnull align 8 dereferenceable(96) %0, i32 noundef %1, i32 noundef %2) #5 comdat align 2 {
  %4 = alloca ptr, align 8
  %5 = alloca i32, align 4
  %6 = alloca i32, align 4
  store ptr %0, ptr %4, align 8, !tbaa !8
  store i32 %1, ptr %5, align 4, !tbaa !18
  store i32 %2, ptr %6, align 4, !tbaa !18
  %7 = load ptr, ptr %4, align 8
  %8 = getelementptr inbounds nuw %"class.cv::Mat", ptr %7, i32 0, i32 4
  %9 = load ptr, ptr %8, align 8, !tbaa !176
  %10 = getelementptr inbounds nuw %"class.cv::Mat", ptr %7, i32 0, i32 11
  %11 = getelementptr inbounds nuw %"struct.cv::MatStep", ptr %10, i32 0, i32 0
  %12 = load ptr, ptr %11, align 8, !tbaa !184
  %13 = getelementptr inbounds i64, ptr %12, i64 0
  %14 = load i64, ptr %13, align 8, !tbaa !52
  %15 = load i32, ptr %5, align 4, !tbaa !18
  %16 = sext i32 %15 to i64
  %17 = mul i64 %14, %16
  %18 = getelementptr inbounds nuw i8, ptr %9, i64 %17
  %19 = load i32, ptr %6, align 4, !tbaa !18
  %20 = sext i32 %19 to i64
  %21 = getelementptr inbounds float, ptr %18, i64 %20
  ret ptr %21
}

; Function Attrs: mustprogress uwtable
define hidden noundef double @_ZN2cv4text26OCRBeamSearchClassifierCNN12eval_featureERNS_3MatEPd(ptr noundef nonnull align 8 dereferenceable(624) %0, ptr noundef nonnull align 8 dereferenceable(96) %1, ptr noundef %2) #4 align 2 {
  %4 = alloca ptr, align 8
  %5 = alloca ptr, align 8
  %6 = alloca ptr, align 8
  %7 = alloca i32, align 4
  %8 = alloca i32, align 4
  %9 = alloca i32, align 4
  %10 = alloca i32, align 4
  %11 = alloca i32, align 4
  %12 = alloca i32, align 4
  %13 = alloca i32, align 4
  %14 = alloca double, align 8
  %15 = alloca i32, align 4
  %16 = alloca i32, align 4
  store ptr %0, ptr %4, align 8, !tbaa !94
  store ptr %1, ptr %5, align 8, !tbaa !8
  store ptr %2, ptr %6, align 8, !tbaa !132
  %17 = load ptr, ptr %4, align 8
  call void @llvm.lifetime.start.p0(i64 4, ptr %7) #3
  store i32 0, ptr %7, align 4, !tbaa !18
  br label %18

18:                                               ; preds = %29, %3
  %19 = load i32, ptr %7, align 4, !tbaa !18
  %20 = getelementptr inbounds nuw %"class.cv::text::OCRBeamSearchClassifierCNN", ptr %17, i32 0, i32 3
  %21 = load i32, ptr %20, align 8, !tbaa !101
  %22 = icmp slt i32 %19, %21
  br i1 %22, label %24, label %23

23:                                               ; preds = %18
  call void @llvm.lifetime.end.p0(i64 4, ptr %7) #3
  br label %32

24:                                               ; preds = %18
  %25 = load ptr, ptr %6, align 8, !tbaa !132
  %26 = load i32, ptr %7, align 4, !tbaa !18
  %27 = sext i32 %26 to i64
  %28 = getelementptr inbounds double, ptr %25, i64 %27
  store double 0.000000e+00, ptr %28, align 8, !tbaa !127
  br label %29

29:                                               ; preds = %24
  %30 = load i32, ptr %7, align 4, !tbaa !18
  %31 = add nsw i32 %30, 1
  store i32 %31, ptr %7, align 4, !tbaa !18
  br label %18, !llvm.loop !185

32:                                               ; preds = %23
  call void @llvm.lifetime.start.p0(i64 4, ptr %8) #3
  store i32 0, ptr %8, align 4, !tbaa !18
  br label %33

33:                                               ; preds = %67, %32
  %34 = load i32, ptr %8, align 4, !tbaa !18
  %35 = getelementptr inbounds nuw %"class.cv::text::OCRBeamSearchClassifierCNN", ptr %17, i32 0, i32 4
  %36 = load i32, ptr %35, align 4, !tbaa !99
  %37 = icmp slt i32 %34, %36
  br i1 %37, label %39, label %38

38:                                               ; preds = %33
  store i32 5, ptr %9, align 4
  call void @llvm.lifetime.end.p0(i64 4, ptr %8) #3
  br label %70

39:                                               ; preds = %33
  call void @llvm.lifetime.start.p0(i64 4, ptr %10) #3
  store i32 0, ptr %10, align 4, !tbaa !18
  br label %40

40:                                               ; preds = %63, %39
  %41 = load i32, ptr %10, align 4, !tbaa !18
  %42 = getelementptr inbounds nuw %"class.cv::text::OCRBeamSearchClassifierCNN", ptr %17, i32 0, i32 3
  %43 = load i32, ptr %42, align 8, !tbaa !101
  %44 = icmp slt i32 %41, %43
  br i1 %44, label %46, label %45

45:                                               ; preds = %40
  store i32 8, ptr %9, align 4
  call void @llvm.lifetime.end.p0(i64 4, ptr %10) #3
  br label %66

46:                                               ; preds = %40
  %47 = getelementptr inbounds nuw %"class.cv::text::OCRBeamSearchClassifierCNN", ptr %17, i32 0, i32 7
  %48 = load i32, ptr %8, align 4, !tbaa !18
  %49 = load i32, ptr %10, align 4, !tbaa !18
  %50 = call noundef nonnull align 4 dereferenceable(4) ptr @_ZN2cv3Mat2atIfEERT_ii(ptr noundef nonnull align 8 dereferenceable(96) %47, i32 noundef %48, i32 noundef %49)
  %51 = load float, ptr %50, align 4, !tbaa !44
  %52 = fpext float %51 to double
  %53 = load ptr, ptr %5, align 8, !tbaa !8
  %54 = load i32, ptr %8, align 4, !tbaa !18
  %55 = call noundef nonnull align 8 dereferenceable(8) ptr @_ZN2cv3Mat2atIdEERT_ii(ptr noundef nonnull align 8 dereferenceable(96) %53, i32 noundef 0, i32 noundef %54)
  %56 = load double, ptr %55, align 8, !tbaa !127
  %57 = load ptr, ptr %6, align 8, !tbaa !132
  %58 = load i32, ptr %10, align 4, !tbaa !18
  %59 = sext i32 %58 to i64
  %60 = getelementptr inbounds double, ptr %57, i64 %59
  %61 = load double, ptr %60, align 8, !tbaa !127
  %62 = call double @llvm.fmuladd.f64(double %52, double %56, double %61)
  store double %62, ptr %60, align 8, !tbaa !127
  br label %63

63:                                               ; preds = %46
  %64 = load i32, ptr %10, align 4, !tbaa !18
  %65 = add nsw i32 %64, 1
  store i32 %65, ptr %10, align 4, !tbaa !18
  br label %40, !llvm.loop !186

66:                                               ; preds = %45
  br label %67

67:                                               ; preds = %66
  %68 = load i32, ptr %8, align 4, !tbaa !18
  %69 = add nsw i32 %68, 1
  store i32 %69, ptr %8, align 4, !tbaa !18
  br label %33, !llvm.loop !187

70:                                               ; preds = %38
  call void @llvm.lifetime.start.p0(i64 4, ptr %11) #3
  store i32 0, ptr %11, align 4, !tbaa !18
  call void @llvm.lifetime.start.p0(i64 4, ptr %12) #3
  store i32 1, ptr %12, align 4, !tbaa !18
  br label %71

71:                                               ; preds = %92, %70
  %72 = load i32, ptr %12, align 4, !tbaa !18
  %73 = getelementptr inbounds nuw %"class.cv::text::OCRBeamSearchClassifierCNN", ptr %17, i32 0, i32 3
  %74 = load i32, ptr %73, align 8, !tbaa !101
  %75 = icmp slt i32 %72, %74
  br i1 %75, label %77, label %76

76:                                               ; preds = %71
  store i32 11, ptr %9, align 4
  call void @llvm.lifetime.end.p0(i64 4, ptr %12) #3
  br label %95

77:                                               ; preds = %71
  %78 = load ptr, ptr %6, align 8, !tbaa !132
  %79 = load i32, ptr %12, align 4, !tbaa !18
  %80 = sext i32 %79 to i64
  %81 = getelementptr inbounds double, ptr %78, i64 %80
  %82 = load double, ptr %81, align 8, !tbaa !127
  %83 = load ptr, ptr %6, align 8, !tbaa !132
  %84 = load i32, ptr %11, align 4, !tbaa !18
  %85 = sext i32 %84 to i64
  %86 = getelementptr inbounds double, ptr %83, i64 %85
  %87 = load double, ptr %86, align 8, !tbaa !127
  %88 = fcmp ogt double %82, %87
  br i1 %88, label %89, label %91

89:                                               ; preds = %77
  %90 = load i32, ptr %12, align 4, !tbaa !18
  store i32 %90, ptr %11, align 4, !tbaa !18
  br label %91

91:                                               ; preds = %89, %77
  br label %92

92:                                               ; preds = %91
  %93 = load i32, ptr %12, align 4, !tbaa !18
  %94 = add nsw i32 %93, 1
  store i32 %94, ptr %12, align 4, !tbaa !18
  br label %71, !llvm.loop !188

95:                                               ; preds = %76
  call void @llvm.lifetime.start.p0(i64 4, ptr %13) #3
  store i32 0, ptr %13, align 4, !tbaa !18
  br label %96

96:                                               ; preds = %116, %95
  %97 = load i32, ptr %13, align 4, !tbaa !18
  %98 = getelementptr inbounds nuw %"class.cv::text::OCRBeamSearchClassifierCNN", ptr %17, i32 0, i32 3
  %99 = load i32, ptr %98, align 8, !tbaa !101
  %100 = icmp slt i32 %97, %99
  br i1 %100, label %102, label %101

101:                                              ; preds = %96
  store i32 14, ptr %9, align 4
  call void @llvm.lifetime.end.p0(i64 4, ptr %13) #3
  br label %119

102:                                              ; preds = %96
  %103 = load ptr, ptr %6, align 8, !tbaa !132
  %104 = load i32, ptr %13, align 4, !tbaa !18
  %105 = sext i32 %104 to i64
  %106 = getelementptr inbounds double, ptr %103, i64 %105
  %107 = load double, ptr %106, align 8, !tbaa !127
  %108 = fneg double %107
  %109 = call double @exp(double noundef %108) #3, !tbaa !18
  %110 = fadd double 1.000000e+00, %109
  %111 = fdiv double 1.000000e+00, %110
  %112 = load ptr, ptr %6, align 8, !tbaa !132
  %113 = load i32, ptr %13, align 4, !tbaa !18
  %114 = sext i32 %113 to i64
  %115 = getelementptr inbounds double, ptr %112, i64 %114
  store double %111, ptr %115, align 8, !tbaa !127
  br label %116

116:                                              ; preds = %102
  %117 = load i32, ptr %13, align 4, !tbaa !18
  %118 = add nsw i32 %117, 1
  store i32 %118, ptr %13, align 4, !tbaa !18
  br label %96, !llvm.loop !189

119:                                              ; preds = %101
  call void @llvm.lifetime.start.p0(i64 8, ptr %14) #3
  store double 0.000000e+00, ptr %14, align 8, !tbaa !127
  call void @llvm.lifetime.start.p0(i64 4, ptr %15) #3
  store i32 0, ptr %15, align 4, !tbaa !18
  br label %120

120:                                              ; preds = %134, %119
  %121 = load i32, ptr %15, align 4, !tbaa !18
  %122 = getelementptr inbounds nuw %"class.cv::text::OCRBeamSearchClassifierCNN", ptr %17, i32 0, i32 3
  %123 = load i32, ptr %122, align 8, !tbaa !101
  %124 = icmp slt i32 %121, %123
  br i1 %124, label %126, label %125

125:                                              ; preds = %120
  store i32 17, ptr %9, align 4
  call void @llvm.lifetime.end.p0(i64 4, ptr %15) #3
  br label %137

126:                                              ; preds = %120
  %127 = load ptr, ptr %6, align 8, !tbaa !132
  %128 = load i32, ptr %15, align 4, !tbaa !18
  %129 = sext i32 %128 to i64
  %130 = getelementptr inbounds double, ptr %127, i64 %129
  %131 = load double, ptr %130, align 8, !tbaa !127
  %132 = load double, ptr %14, align 8, !tbaa !127
  %133 = fadd double %132, %131
  store double %133, ptr %14, align 8, !tbaa !127
  br label %134

134:                                              ; preds = %126
  %135 = load i32, ptr %15, align 4, !tbaa !18
  %136 = add nsw i32 %135, 1
  store i32 %136, ptr %15, align 4, !tbaa !18
  br label %120, !llvm.loop !190

137:                                              ; preds = %125
  call void @llvm.lifetime.start.p0(i64 4, ptr %16) #3
  store i32 0, ptr %16, align 4, !tbaa !18
  br label %138

138:                                              ; preds = %156, %137
  %139 = load i32, ptr %16, align 4, !tbaa !18
  %140 = getelementptr inbounds nuw %"class.cv::text::OCRBeamSearchClassifierCNN", ptr %17, i32 0, i32 3
  %141 = load i32, ptr %140, align 8, !tbaa !101
  %142 = icmp slt i32 %139, %141
  br i1 %142, label %144, label %143

143:                                              ; preds = %138
  store i32 20, ptr %9, align 4
  call void @llvm.lifetime.end.p0(i64 4, ptr %16) #3
  br label %159

144:                                              ; preds = %138
  %145 = load ptr, ptr %6, align 8, !tbaa !132
  %146 = load i32, ptr %16, align 4, !tbaa !18
  %147 = sext i32 %146 to i64
  %148 = getelementptr inbounds double, ptr %145, i64 %147
  %149 = load double, ptr %148, align 8, !tbaa !127
  %150 = load double, ptr %14, align 8, !tbaa !127
  %151 = fdiv double %149, %150
  %152 = load ptr, ptr %6, align 8, !tbaa !132
  %153 = load i32, ptr %16, align 4, !tbaa !18
  %154 = sext i32 %153 to i64
  %155 = getelementptr inbounds double, ptr %152, i64 %154
  store double %151, ptr %155, align 8, !tbaa !127
  br label %156

156:                                              ; preds = %144
  %157 = load i32, ptr %16, align 4, !tbaa !18
  %158 = add nsw i32 %157, 1
  store i32 %158, ptr %16, align 4, !tbaa !18
  br label %138, !llvm.loop !191

159:                                              ; preds = %143
  %160 = load i32, ptr %11, align 4, !tbaa !18
  %161 = sitofp i32 %160 to double
  store i32 1, ptr %9, align 4
  call void @llvm.lifetime.end.p0(i64 8, ptr %14) #3
  call void @llvm.lifetime.end.p0(i64 4, ptr %11) #3
  ret double %161
}