; Function Attrs: mustprogress nofree nounwind memory(readwrite, inaccessiblemem: write) uwtable
define hidden noundef double @_ZN2cv4text26OCRBeamSearchClassifierCNN12eval_featureERNS_3MatEPd(ptr noundef nonnull readonly align 8 captures(none) dereferenceable(624) %0, ptr noundef nonnull readonly align 8 captures(none) dereferenceable(96) %1, ptr noundef captures(none) %2) local_unnamed_addr #11 align 2 {
  %4 = getelementptr inbounds nuw i8, ptr %0, i64 16
  %5 = load i32, ptr %4, align 8, !tbaa !129
  %6 = icmp sgt i32 %5, 0
  br i1 %6, label %.preheader52, label %._crit_edge

.preheader52:                                     ; preds = %3
  %7 = zext nneg i32 %5 to i64
  %8 = shl nuw nsw i64 %7, 3
  tail call void @llvm.memset.p0.i64(ptr align 8 %2, i8 0, i64 %8, i1 false), !tbaa !190
  %9 = getelementptr inbounds nuw i8, ptr %0, i64 20
  %10 = load i32, ptr %9, align 4, !tbaa !127
  %11 = icmp sgt i32 %10, 0
  br i1 %11, label %.preheader51.lr.ph.split.us, label %.preheader50

.preheader51.lr.ph.split.us:                      ; preds = %.preheader52
  %12 = getelementptr inbounds nuw i8, ptr %0, i64 232
  %13 = load ptr, ptr %12, align 8
  %14 = getelementptr inbounds nuw i8, ptr %1, i64 16
  %15 = load ptr, ptr %14, align 8
  %16 = getelementptr inbounds nuw i8, ptr %0, i64 288
  %17 = load ptr, ptr %16, align 8
  %18 = load i64, ptr %17, align 8, !tbaa !45
  %wide.trip.count80 = zext nneg i32 %10 to i64
  %wide.trip.count = zext nneg i32 %5 to i64
  br label %.preheader51.us

.preheader51.us:                                  ; preds = %._crit_edge.us, %.preheader51.lr.ph.split.us
  %indvars.iv77 = phi i64 [ %indvars.iv.next78, %._crit_edge.us ], [ 0, %.preheader51.lr.ph.split.us ]
  %19 = mul i64 %18, %indvars.iv77
  %20 = getelementptr inbounds nuw i8, ptr %13, i64 %19
  %21 = getelementptr inbounds nuw double, ptr %15, i64 %indvars.iv77
  br label %22

22:                                               ; preds = %.preheader51.us, %22
  %indvars.iv = phi i64 [ 0, %.preheader51.us ], [ %indvars.iv.next, %22 ]
  %23 = getelementptr inbounds nuw float, ptr %20, i64 %indvars.iv
  %24 = load float, ptr %23, align 4, !tbaa !46
  %25 = fpext float %24 to double
  %26 = load double, ptr %21, align 8, !tbaa !190
  %27 = getelementptr inbounds nuw double, ptr %2, i64 %indvars.iv
  %28 = load double, ptr %27, align 8, !tbaa !190
  %29 = tail call double @llvm.fmuladd.f64(double %25, double %26, double %28)
  store double %29, ptr %27, align 8, !tbaa !190
  %indvars.iv.next = add nuw nsw i64 %indvars.iv, 1
  %exitcond.not = icmp eq i64 %indvars.iv.next, %wide.trip.count
  br i1 %exitcond.not, label %._crit_edge.us, label %22, !llvm.loop !242

._crit_edge.us:                                   ; preds = %22
  %indvars.iv.next78 = add nuw nsw i64 %indvars.iv77, 1
  %exitcond81.not = icmp eq i64 %indvars.iv.next78, %wide.trip.count80
  br i1 %exitcond81.not, label %.preheader50, label %.preheader51.us, !llvm.loop !243

.preheader50:                                     ; preds = %._crit_edge.us, %.preheader52
  %.not = icmp eq i32 %5, 1
  br i1 %.not, label %.lr.ph64.preheader, label %.lr.ph61.preheader

.lr.ph61.preheader:                               ; preds = %.preheader50
  %wide.trip.count85 = zext nneg i32 %5 to i64
  br label %.lr.ph61

.preheader49.thread:                              ; preds = %.lr.ph61
  %30 = uitofp nneg i32 %.1 to double
  br label %.lr.ph64.preheader

.lr.ph64.preheader:                               ; preds = %.preheader50, %.preheader49.thread
  %.044.lcssa102 = phi double [ %30, %.preheader49.thread ], [ 0.000000e+00, %.preheader50 ]
  br label %.lr.ph64

.lr.ph61:                                         ; preds = %.lr.ph61.preheader, %.lr.ph61
  %indvars.iv82 = phi i64 [ 1, %.lr.ph61.preheader ], [ %indvars.iv.next83, %.lr.ph61 ]
  %.04459 = phi i32 [ 0, %.lr.ph61.preheader ], [ %.1, %.lr.ph61 ]
  %31 = getelementptr inbounds nuw double, ptr %2, i64 %indvars.iv82
  %32 = load double, ptr %31, align 8, !tbaa !190
  %33 = zext nneg i32 %.04459 to i64
  %34 = getelementptr inbounds nuw double, ptr %2, i64 %33
  %35 = load double, ptr %34, align 8, !tbaa !190
  %36 = fcmp ogt double %32, %35
  %37 = trunc nuw nsw i64 %indvars.iv82 to i32
  %.1 = select i1 %36, i32 %37, i32 %.04459
  %indvars.iv.next83 = add nuw nsw i64 %indvars.iv82, 1
  %exitcond86.not = icmp eq i64 %indvars.iv.next83, %wide.trip.count85
  br i1 %exitcond86.not, label %.preheader49.thread, label %.lr.ph61, !llvm.loop !244

.preheader48:                                     ; preds = %.lr.ph64
  %38 = icmp sgt i32 %45, 0
  br i1 %38, label %.lr.ph68.preheader, label %._crit_edge

.lr.ph68.preheader:                               ; preds = %.preheader48
  %wide.trip.count93 = zext nneg i32 %45 to i64
  br label %.lr.ph68

.lr.ph64:                                         ; preds = %.lr.ph64.preheader, %.lr.ph64
  %indvars.iv87 = phi i64 [ 0, %.lr.ph64.preheader ], [ %indvars.iv.next88, %.lr.ph64 ]
  %39 = getelementptr inbounds nuw double, ptr %2, i64 %indvars.iv87
  %40 = load double, ptr %39, align 8, !tbaa !190
  %41 = fneg double %40
  %42 = tail call double @exp(double noundef %41) #26, !tbaa !84
  %43 = fadd double %42, 1.000000e+00
  %44 = fdiv double 1.000000e+00, %43
  store double %44, ptr %39, align 8, !tbaa !190
  %indvars.iv.next88 = add nuw nsw i64 %indvars.iv87, 1
  %45 = load i32, ptr %4, align 8, !tbaa !129
  %46 = sext i32 %45 to i64
  %47 = icmp slt i64 %indvars.iv.next88, %46
  br i1 %47, label %.lr.ph64, label %.preheader48, !llvm.loop !245

.lr.ph71.preheader:                               ; preds = %.lr.ph68
  %wide.trip.count98 = zext nneg i32 %45 to i64
  br label %.lr.ph71

.lr.ph68:                                         ; preds = %.lr.ph68.preheader, %.lr.ph68
  %indvars.iv90 = phi i64 [ 0, %.lr.ph68.preheader ], [ %indvars.iv.next91, %.lr.ph68 ]
  %.04166 = phi double [ 0.000000e+00, %.lr.ph68.preheader ], [ %50, %.lr.ph68 ]
  %48 = getelementptr inbounds nuw double, ptr %2, i64 %indvars.iv90
  %49 = load double, ptr %48, align 8, !tbaa !190
  %50 = fadd double %.04166, %49
  %indvars.iv.next91 = add nuw nsw i64 %indvars.iv90, 1
  %exitcond94.not = icmp eq i64 %indvars.iv.next91, %wide.trip.count93
  br i1 %exitcond94.not, label %.lr.ph71.preheader, label %.lr.ph68, !llvm.loop !246

._crit_edge:                                      ; preds = %.lr.ph71, %3, %.preheader48
  %.044.lcssa101107113 = phi double [ %.044.lcssa102, %.preheader48 ], [ 0.000000e+00, %3 ], [ %.044.lcssa102, %.lr.ph71 ]
  ret double %.044.lcssa101107113

.lr.ph71:                                         ; preds = %.lr.ph71.preheader, %.lr.ph71
  %indvars.iv95 = phi i64 [ 0, %.lr.ph71.preheader ], [ %indvars.iv.next96, %.lr.ph71 ]
  %51 = getelementptr inbounds nuw double, ptr %2, i64 %indvars.iv95
  %52 = load double, ptr %51, align 8, !tbaa !190
  %53 = fdiv double %52, %50
  store double %53, ptr %51, align 8, !tbaa !190
  %indvars.iv.next96 = add nuw nsw i64 %indvars.iv95, 1
  %exitcond99.not = icmp eq i64 %indvars.iv.next96, %wide.trip.count98
  br i1 %exitcond99.not, label %._crit_edge, label %.lr.ph71, !llvm.loop !247
}